target datalayout = "e-m:e-p270:32:32-p271:32:32-p272:64:64-i64:64-i128:128-f80:128-n8:16:32:64-S128"
target triple = "x86_64-pc-linux-gnu"

%struct.Abc_Ntk_t_ = type { i32, i32, ptr, ptr, ptr, ptr, ptr, ptr, ptr, ptr, ptr, ptr, ptr, [11 x i32], i32, i32, i32, i32, ptr, i32, ptr, ptr, i32, i32, i32, double, i32, %struct.Vec_Int_t_, ptr, ptr, ptr, ptr, ptr, float, i32, ptr, ptr, ptr, ptr, ptr, ptr, ptr, ptr, ptr, ptr, ptr, ptr, ptr, ptr, ptr, ptr, ptr, ptr, ptr, ptr, ptr, ptr }
%struct.Vec_Int_t_ = type { i32, i32, ptr }
%struct.Abc_Obj_t_ = type { ptr, ptr, i32, i32, %struct.Vec_Int_t_, %struct.Vec_Int_t_, %union.anon, %union.anon.0 }
%union.anon = type { ptr }
%union.anon.0 = type { ptr }

; Function Attrs: inlinehint nounwind uwtable
define internal i32 @Abc_LitNot(i32 noundef %0) #3 {
  %2 = alloca i32, align 4
  store i32 %0, ptr %2, align 4, !tbaa !10
  %3 = load i32, ptr %2, align 4, !tbaa !10
  %4 = xor i32 %3, 1
  ret i32 %4
}

; Function Attrs: inlinehint nounwind uwtable
define internal i32 @Abc_ObjFaninId1(ptr noundef %0) #3 {
  %2 = alloca ptr, align 8
  store ptr %0, ptr %2, align 8, !tbaa !32
  %3 = load ptr, ptr %2, align 8, !tbaa !32
  %4 = getelementptr inbounds nuw %struct.Abc_Obj_t_, ptr %3, i32 0, i32 4
  %5 = getelementptr inbounds nuw %struct.Vec_Int_t_, ptr %4, i32 0, i32 2
  %6 = load ptr, ptr %5, align 8, !tbaa !72
  %7 = getelementptr inbounds i32, ptr %6, i64 1
  %8 = load i32, ptr %7, align 4, !tbaa !10
  ret i32 %8
}

; Function Attrs: inlinehint nounwind uwtable
define internal i32 @Abc_ObjFaninId0(ptr noundef %0) #3 {
  %2 = alloca ptr, align 8
  store ptr %0, ptr %2, align 8, !tbaa !32
  %3 = load ptr, ptr %2, align 8, !tbaa !32
  %4 = getelementptr inbounds nuw %struct.Abc_Obj_t_, ptr %3, i32 0, i32 4
  %5 = getelementptr inbounds nuw %struct.Vec_Int_t_, ptr %4, i32 0, i32 2
  %6 = load ptr, ptr %5, align 8, !tbaa !72
  %7 = getelementptr inbounds i32, ptr %6, i64 0
  %8 = load i32, ptr %7, align 4, !tbaa !10
  ret i32 %8
}

; Function Attrs: inlinehint nounwind uwtable
define internal i32 @Vec_IntEntry(ptr noundef %0, i32 noundef %1) #3 {
  %3 = alloca ptr, align 8
  %4 = alloca i32, align 4
  store ptr %0, ptr %3, align 8, !tbaa !44
  store i32 %1, ptr %4, align 4, !tbaa !10
  %5 = load ptr, ptr %3, align 8, !tbaa !44
  %6 = getelementptr inbounds nuw %struct.Vec_Int_t_, ptr %5, i32 0, i32 2
  %7 = load ptr, ptr %6, align 8, !tbaa !52
  %8 = load i32, ptr %4, align 4, !tbaa !10
  %9 = sext i32 %8 to i64
  %10 = getelementptr inbounds i32, ptr %7, i64 %9
  %11 = load i32, ptr %10, align 4, !tbaa !10
  ret i32 %11
}

; Function Attrs: inlinehint nounwind uwtable
define internal i32 @Abc_Var2Lit(i32 noundef %0, i32 noundef %1) #3 {
  %3 = alloca i32, align 4
  %4 = alloca i32, align 4
  store i32 %0, ptr %3, align 4, !tbaa !10
  store i32 %1, ptr %4, align 4, !tbaa !10
  %5 = load i32, ptr %3, align 4, !tbaa !10
  %6 = load i32, ptr %3, align 4, !tbaa !10
  %7 = add nsw i32 %5, %6
  %8 = load i32, ptr %4, align 4, !tbaa !10
  %9 = add nsw i32 %7, %8
  ret i32 %9
}

; Function Attrs: inlinehint nounwind uwtable
define internal i32 @Abc_ObjFaninId(ptr noundef %0, i32 noundef %1) #3 {
  %3 = alloca ptr, align 8
  %4 = alloca i32, align 4
  store ptr %0, ptr %3, align 8, !tbaa !32
  store i32 %1, ptr %4, align 4, !tbaa !10
  %5 = load ptr, ptr %3, align 8, !tbaa !32
  %6 = getelementptr inbounds nuw %struct.Abc_Obj_t_, ptr %5, i32 0, i32 4
  %7 = getelementptr inbounds nuw %struct.Vec_Int_t_, ptr %6, i32 0, i32 2
  %8 = load ptr, ptr %7, align 8, !tbaa !72
  %9 = load i32, ptr %4, align 4, !tbaa !10
  %10 = sext i32 %9 to i64
  %11 = getelementptr inbounds i32, ptr %8, i64 %10
  %12 = load i32, ptr %11, align 4, !tbaa !10
  ret i32 %12
}

; Function Attrs: inlinehint nounwind uwtable
define internal i32 @Abc_ObjFaninNum(ptr noundef %0) #3 {
  %2 = alloca ptr, align 8
  store ptr %0, ptr %2, align 8, !tbaa !32
  %3 = load ptr, ptr %2, align 8, !tbaa !32
  %4 = getelementptr inbounds nuw %struct.Abc_Obj_t_, ptr %3, i32 0, i32 4
  %5 = getelementptr inbounds nuw %struct.Vec_Int_t_, ptr %4, i32 0, i32 1
  %6 = load i32, ptr %5, align 4, !tbaa !74
  ret i32 %6
}

; Function Attrs: inlinehint nounwind uwtable
define internal i32 @Abc_NtkIsMappedLogic(ptr noundef %0) #3 {
  %2 = alloca ptr, align 8
  store ptr %0, ptr %2, align 8, !tbaa !3
  %3 = load ptr, ptr %2, align 8, !tbaa !3
  %4 = getelementptr inbounds nuw %struct.Abc_Ntk_t_, ptr %3, i32 0, i32 1
  %5 = load i32, ptr %4, align 4, !tbaa !57
  %6 = icmp eq i32 %5, 4
  br i1 %6, label %7, label %12

7:                                                ; preds = %1
  %8 = load ptr, ptr %2, align 8, !tbaa !3
  %9 = getelementptr inbounds nuw %struct.Abc_Ntk_t_, ptr %8, i32 0, i32 0
  %10 = load i32, ptr %9, align 8, !tbaa !58
  %11 = icmp eq i32 %10, 2
  br label %12

12:                                               ; preds = %7, %1
  %13 = phi i1 [ false, %1 ], [ %11, %7 ]
  %14 = zext i1 %13 to i32
  ret i32 %14
}

; Function Attrs: inlinehint nounwind uwtable
define internal i32 @Abc_NtkFinSimOneLit(ptr noundef %0, ptr noundef %1, i32 noundef %2, ptr noundef %3, i32 noundef %4, ptr noundef %5) #3 {
  %7 = alloca i32, align 4
  %8 = alloca ptr, align 8
  %9 = alloca ptr, align 8
  %10 = alloca i32, align 4
  %11 = alloca ptr, align 8
  %12 = alloca i32, align 4
  %13 = alloca ptr, align 8
  %14 = alloca ptr, align 8
  %15 = alloca i32, align 4
  %16 = alloca [6 x i32], align 16
  %17 = alloca i32, align 4
  %18 = alloca i32, align 4
  %19 = alloca i32, align 4
  store ptr %0, ptr %8, align 8, !tbaa !130
  store ptr %1, ptr %9, align 8, !tbaa !32
  store i32 %2, ptr %10, align 4, !tbaa !10
  store ptr %3, ptr %11, align 8, !tbaa !44
  store i32 %4, ptr %12, align 4, !tbaa !10
  store ptr %5, ptr %13, align 8, !tbaa !44
  %20 = load ptr, ptr %9, align 8, !tbaa !32
  %21 = getelementptr inbounds nuw %struct.Abc_Obj_t_, ptr %20, i32 0, i32 0
  %22 = load ptr, ptr %21, align 8, !tbaa !71
  %23 = call i32 @Abc_NtkIsMappedLogic(ptr noundef %22)
  %24 = icmp ne i32 %23, 0
  br i1 %24, label %25, label %61

25:                                               ; preds = %6
  %26 = load i32, ptr %10, align 4, !tbaa !10
  %27 = icmp sge i32 %26, 0
  br i1 %27, label %28, label %61

28:                                               ; preds = %25
  call void @llvm.lifetime.start.p0(i64 8, ptr %14) #14
  %29 = load ptr, ptr %9, align 8, !tbaa !32
  %30 = getelementptr inbounds nuw %struct.Abc_Obj_t_, ptr %29, i32 0, i32 0
  %31 = load ptr, ptr %30, align 8, !tbaa !71
  %32 = getelementptr inbounds nuw %struct.Abc_Ntk_t_, ptr %31, i32 0, i32 30
  %33 = load ptr, ptr %32, align 8, !tbaa !12
  store ptr %33, ptr %14, align 8, !tbaa !27
  call void @llvm.lifetime.start.p0(i64 4, ptr %15) #14
  call void @llvm.lifetime.start.p0(i64 24, ptr %16) #14
  store i32 0, ptr %15, align 4, !tbaa !10
  br label %34

34:                                               ; preds = %50, %28
  %35 = load i32, ptr %15, align 4, !tbaa !10
  %36 = load ptr, ptr %9, align 8, !tbaa !32
  %37 = call i32 @Abc_ObjFaninNum(ptr noundef %36)
  %38 = icmp slt i32 %35, %37
  br i1 %38, label %39, label %53

39:                                               ; preds = %34
  %40 = load ptr, ptr %11, align 8, !tbaa !44
  %41 = load ptr, ptr %9, align 8, !tbaa !32
  %42 = load i32, ptr %15, align 4, !tbaa !10
  %43 = call i32 @Abc_ObjFaninId(ptr noundef %41, i32 noundef %42)
  %44 = load i32, ptr %12, align 4, !tbaa !10
  %45 = call i32 @Abc_Var2Lit(i32 noundef %43, i32 noundef %44)
  %46 = call i32 @Vec_IntEntry(ptr noundef %40, i32 noundef %45)
  %47 = load i32, ptr %15, align 4, !tbaa !10
  %48 = sext i32 %47 to i64
  %49 = getelementptr inbounds [6 x i32], ptr %16, i64 0, i64 %48
  store i32 %46, ptr %49, align 4, !tbaa !10
  br label %50

50:                                               ; preds = %39
  %51 = load i32, ptr %15, align 4, !tbaa !10
  %52 = add nsw i32 %51, 1
  store i32 %52, ptr %15, align 4, !tbaa !10
  br label %34, !llvm.loop !154

53:                                               ; preds = %34
  %54 = load ptr, ptr %8, align 8, !tbaa !130
  %55 = load ptr, ptr %14, align 8, !tbaa !27
  %56 = load i32, ptr %10, align 4, !tbaa !10
  %57 = call ptr @Mio_LibraryReadGateById(ptr noundef %55, i32 noundef %56)
  %58 = getelementptr inbounds [6 x i32], ptr %16, i64 0, i64 0
  %59 = load ptr, ptr %13, align 8, !tbaa !44
  %60 = call i32 @Mio_LibGateSimulateGia(ptr noundef %54, ptr noundef %57, ptr noundef %58, ptr noundef %59)
  store i32 %60, ptr %7, align 4
  call void @llvm.lifetime.end.p0(i64 24, ptr %16) #14
  call void @llvm.lifetime.end.p0(i64 4, ptr %15) #14
  call void @llvm.lifetime.end.p0(i64 8, ptr %14) #14
  br label %159

61:                                               ; preds = %25, %6
  call void @llvm.lifetime.start.p0(i64 4, ptr %17) #14
  %62 = load ptr, ptr %9, align 8, !tbaa !32
  %63 = call i32 @Abc_ObjFaninNum(ptr noundef %62)
  %64 = icmp sgt i32 %63, 0
  br i1 %64, label %65, label %72

65:                                               ; preds = %61
  %66 = load ptr, ptr %11, align 8, !tbaa !44
  %67 = load ptr, ptr %9, align 8, !tbaa !32
  %68 = call i32 @Abc_ObjFaninId0(ptr noundef %67)
  %69 = load i32, ptr %12, align 4, !tbaa !10
  %70 = call i32 @Abc_Var2Lit(i32 noundef %68, i32 noundef %69)
  %71 = call i32 @Vec_IntEntry(ptr noundef %66, i32 noundef %70)
  br label %73

72:                                               ; preds = %61
  br label %73

73:                                               ; preds = %72, %65
  %74 = phi i32 [ %71, %65 ], [ -1, %72 ]
  store i32 %74, ptr %17, align 4, !tbaa !10
  call void @llvm.lifetime.start.p0(i64 4, ptr %18) #14
  %75 = load ptr, ptr %9, align 8, !tbaa !32
  %76 = call i32 @Abc_ObjFaninNum(ptr noundef %75)
  %77 = icmp sgt i32 %76, 1
  br i1 %77, label %78, label %85

78:                                               ; preds = %73
  %79 = load ptr, ptr %11, align 8, !tbaa !44
  %80 = load ptr, ptr %9, align 8, !tbaa !32
  %81 = call i32 @Abc_ObjFaninId1(ptr noundef %80)
  %82 = load i32, ptr %12, align 4, !tbaa !10
  %83 = call i32 @Abc_Var2Lit(i32 noundef %81, i32 noundef %82)
  %84 = call i32 @Vec_IntEntry(ptr noundef %79, i32 noundef %83)
  br label %86

85:                                               ; preds = %73
  br label %86

86:                                               ; preds = %85, %78
  %87 = phi i32 [ %84, %78 ], [ -1, %85 ]
  store i32 %87, ptr %18, align 4, !tbaa !10
  %88 = load i32, ptr %10, align 4, !tbaa !10
  %89 = icmp eq i32 %88, -99
  br i1 %89, label %90, label %91

90:                                               ; preds = %86
  store i32 0, ptr %7, align 4
  store i32 1, ptr %19, align 4
  br label %158

91:                                               ; preds = %86
  %92 = load i32, ptr %10, align 4, !tbaa !10
  %93 = icmp eq i32 %92, -98
  br i1 %93, label %94, label %95

94:                                               ; preds = %91
  store i32 1, ptr %7, align 4
  store i32 1, ptr %19, align 4
  br label %158

95:                                               ; preds = %91
  %96 = load i32, ptr %10, align 4, !tbaa !10
  %97 = icmp eq i32 %96, -89
  br i1 %97, label %98, label %100

98:                                               ; preds = %95
  %99 = load i32, ptr %17, align 4, !tbaa !10
  store i32 %99, ptr %7, align 4
  store i32 1, ptr %19, align 4
  br label %158

100:                                              ; preds = %95
  %101 = load i32, ptr %10, align 4, !tbaa !10
  %102 = icmp eq i32 %101, -90
  br i1 %102, label %103, label %106

103:                                              ; preds = %100
  %104 = load i32, ptr %17, align 4, !tbaa !10
  %105 = call i32 @Abc_LitNot(i32 noundef %104)
  store i32 %105, ptr %7, align 4
  store i32 1, ptr %19, align 4
  br label %158

106:                                              ; preds = %100
  %107 = load i32, ptr %10, align 4, !tbaa !10
  %108 = icmp eq i32 %107, -96
  br i1 %108, label %109, label %114

109:                                              ; preds = %106
  %110 = load ptr, ptr %8, align 8, !tbaa !130
  %111 = load i32, ptr %17, align 4, !tbaa !10
  %112 = load i32, ptr %18, align 4, !tbaa !10
  %113 = call i32 @Gia_ManHashAnd(ptr noundef %110, i32 noundef %111, i32 noundef %112)
  store i32 %113, ptr %7, align 4
  store i32 1, ptr %19, align 4
  br label %158

114:                                              ; preds = %106
  %115 = load i32, ptr %10, align 4, !tbaa !10
  %116 = icmp eq i32 %115, -94
  br i1 %116, label %117, label %122

117:                                              ; preds = %114
  %118 = load ptr, ptr %8, align 8, !tbaa !130
  %119 = load i32, ptr %17, align 4, !tbaa !10
  %120 = load i32, ptr %18, align 4, !tbaa !10
  %121 = call i32 @Gia_ManHashOr(ptr noundef %118, i32 noundef %119, i32 noundef %120)
  store i32 %121, ptr %7, align 4
  store i32 1, ptr %19, align 4
  br label %158

122:                                              ; preds = %114
  %123 = load i32, ptr %10, align 4, !tbaa !10
  %124 = icmp eq i32 %123, -92
  br i1 %124, label %125, label %130

125:                                              ; preds = %122
  %126 = load ptr, ptr %8, align 8, !tbaa !130
  %127 = load i32, ptr %17, align 4, !tbaa !10
  %128 = load i32, ptr %18, align 4, !tbaa !10
  %129 = call i32 @Gia_ManHashXor(ptr noundef %126, i32 noundef %127, i32 noundef %128)
  store i32 %129, ptr %7, align 4
  store i32 1, ptr %19, align 4
  br label %158

130:                                              ; preds = %122
  %131 = load i32, ptr %10, align 4, !tbaa !10
  %132 = icmp eq i32 %131, -95
  br i1 %132, label %133, label %139

133:                                              ; preds = %130
  %134 = load ptr, ptr %8, align 8, !tbaa !130
  %135 = load i32, ptr %17, align 4, !tbaa !10
  %136 = load i32, ptr %18, align 4, !tbaa !10
  %137 = call i32 @Gia_ManHashAnd(ptr noundef %134, i32 noundef %135, i32 noundef %136)
  %138 = call i32 @Abc_LitNot(i32 noundef %137)
  store i32 %138, ptr %7, align 4
  store i32 1, ptr %19, align 4
  br label %158

139:                                              ; preds = %130
  %140 = load i32, ptr %10, align 4, !tbaa !10
  %141 = icmp eq i32 %140, -93
  br i1 %141, label %142, label %148

142:                                              ; preds = %139
  %143 = load ptr, ptr %8, align 8, !tbaa !130
  %144 = load i32, ptr %17, align 4, !tbaa !10
  %145 = load i32, ptr %18, align 4, !tbaa !10
  %146 = call i32 @Gia_ManHashOr(ptr noundef %143, i32 noundef %144, i32 noundef %145)
  %147 = call i32 @Abc_LitNot(i32 noundef %146)
  store i32 %147, ptr %7, align 4
  store i32 1, ptr %19, align 4
  br label %158

148:                                              ; preds = %139
  %149 = load i32, ptr %10, align 4, !tbaa !10
  %150 = icmp eq i32 %149, -91
  br i1 %150, label %151, label %157

151:                                              ; preds = %148
  %152 = load ptr, ptr %8, align 8, !tbaa !130
  %153 = load i32, ptr %17, align 4, !tbaa !10
  %154 = load i32, ptr %18, align 4, !tbaa !10
  %155 = call i32 @Gia_ManHashXor(ptr noundef %152, i32 noundef %153, i32 noundef %154)
  %156 = call i32 @Abc_LitNot(i32 noundef %155)
  store i32 %156, ptr %7, align 4
  store i32 1, ptr %19, align 4
  br label %158

157:                                              ; preds = %148
  store i32 -1, ptr %7, align 4
  store i32 1, ptr %19, align 4
  br label %158

158:                                              ; preds = %157, %151, %142, %133, %125, %117, %109, %103, %98, %94, %90
  call void @llvm.lifetime.end.p0(i64 4, ptr %18) #14
  call void @llvm.lifetime.end.p0(i64 4, ptr %17) #14
  br label %159

159:                                              ; preds = %158, %53
  %160 = load i32, ptr %7, align 4
  ret i32 %160
}