; Function Attrs: inlinehint nounwind uwtable
define internal fastcc i32 @Abc_NtkFinSimOneLit(ptr noundef %0, ptr noundef nonnull readonly captures(none) %1, i32 noundef %2, ptr noundef readonly captures(none) %3, i32 noundef range(i32 0, 2) %4, ptr noundef captures(none) %5) unnamed_addr #10 {
  %7 = alloca [6 x i32], align 16
  %8 = load ptr, ptr %1, align 8, !tbaa !51
  %9 = getelementptr inbounds nuw i8, ptr %8, i64 4
  %10 = load i32, ptr %9, align 4, !tbaa !43
  %11 = icmp eq i32 %10, 4
  br i1 %11, label %Abc_NtkIsMappedLogic.exit, label %Abc_NtkIsMappedLogic.exit.thread

Abc_NtkIsMappedLogic.exit:                        ; preds = %6
  %12 = load i32, ptr %8, align 8, !tbaa !44
  %13 = icmp eq i32 %12, 2
  %14 = icmp sgt i32 %2, -1
  %or.cond = and i1 %14, %13
  br i1 %or.cond, label %15, label %Abc_NtkIsMappedLogic.exit.thread

15:                                               ; preds = %Abc_NtkIsMappedLogic.exit
  %16 = getelementptr inbounds nuw i8, ptr %8, i64 256
  %17 = load ptr, ptr %16, align 8, !tbaa !3
  call void @llvm.lifetime.start.p0(i64 24, ptr nonnull %7) #32
  %18 = getelementptr i8, ptr %1, i64 28
  %.val61 = load i32, ptr %18, align 4, !tbaa !55
  %19 = icmp sgt i32 %.val61, 0
  br i1 %19, label %.lr.ph, label %._crit_edge

.lr.ph:                                           ; preds = %15
  %20 = getelementptr i8, ptr %1, i64 32
  %.val62 = load ptr, ptr %20, align 8, !tbaa !52
  %21 = getelementptr i8, ptr %3, i64 8
  %.val58 = load ptr, ptr %21, align 8, !tbaa !36
  %wide.trip.count = zext nneg i32 %.val61 to i64
  br label %22

22:                                               ; preds = %.lr.ph, %22
  %indvars.iv = phi i64 [ 0, %.lr.ph ], [ %indvars.iv.next, %22 ]
  %23 = getelementptr inbounds nuw i32, ptr %.val62, i64 %indvars.iv
  %24 = load i32, ptr %23, align 4, !tbaa !34
  %25 = shl nsw i32 %24, 1
  %26 = or disjoint i32 %25, %4
  %27 = sext i32 %26 to i64
  %28 = getelementptr inbounds i32, ptr %.val58, i64 %27
  %29 = load i32, ptr %28, align 4, !tbaa !34
  %30 = getelementptr inbounds nuw [6 x i32], ptr %7, i64 0, i64 %indvars.iv
  store i32 %29, ptr %30, align 4, !tbaa !34
  %indvars.iv.next = add nuw nsw i64 %indvars.iv, 1
  %exitcond.not = icmp eq i64 %indvars.iv.next, %wide.trip.count
  br i1 %exitcond.not, label %._crit_edge, label %22, !llvm.loop !137

._crit_edge:                                      ; preds = %22, %15
  %31 = tail call ptr @Mio_LibraryReadGateById(ptr noundef %17, i32 noundef %2) #32
  %32 = call i32 @Mio_LibGateSimulateGia(ptr noundef %0, ptr noundef %31, ptr noundef nonnull %7, ptr noundef %5)
  call void @llvm.lifetime.end.p0(i64 24, ptr nonnull %7) #32
  br label %72

Abc_NtkIsMappedLogic.exit.thread:                 ; preds = %6, %Abc_NtkIsMappedLogic.exit
  %33 = getelementptr i8, ptr %1, i64 28
  %.val60 = load i32, ptr %33, align 4, !tbaa !55
  %34 = icmp sgt i32 %.val60, 0
  br i1 %34, label %35, label %.thread

35:                                               ; preds = %Abc_NtkIsMappedLogic.exit.thread
  %36 = getelementptr i8, ptr %1, i64 32
  %.val63 = load ptr, ptr %36, align 8, !tbaa !52
  %.val63.val = load i32, ptr %.val63, align 4, !tbaa !34
  %37 = shl nsw i32 %.val63.val, 1
  %38 = or disjoint i32 %37, %4
  %39 = getelementptr i8, ptr %3, i64 8
  %.val57 = load ptr, ptr %39, align 8, !tbaa !36
  %40 = sext i32 %38 to i64
  %41 = getelementptr inbounds i32, ptr %.val57, i64 %40
  %42 = load i32, ptr %41, align 4, !tbaa !34
  %.not = icmp eq i32 %.val60, 1
  br i1 %.not, label %.thread, label %43

43:                                               ; preds = %35
  %44 = getelementptr i8, ptr %.val63, i64 4
  %.val64.val = load i32, ptr %44, align 4, !tbaa !34
  %45 = shl nsw i32 %.val64.val, 1
  %46 = or disjoint i32 %45, %4
  %47 = sext i32 %46 to i64
  %48 = getelementptr inbounds i32, ptr %.val57, i64 %47
  %49 = load i32, ptr %48, align 4, !tbaa !34
  br label %.thread

.thread:                                          ; preds = %Abc_NtkIsMappedLogic.exit.thread, %35, %43
  %50 = phi i32 [ %42, %43 ], [ %42, %35 ], [ -1, %Abc_NtkIsMappedLogic.exit.thread ]
  %51 = phi i32 [ %49, %43 ], [ -1, %35 ], [ -1, %Abc_NtkIsMappedLogic.exit.thread ]
  switch i32 %2, label %71 [
    i32 -99, label %72
    i32 -98, label %52
    i32 -89, label %53
    i32 -90, label %54
    i32 -96, label %56
    i32 -94, label %58
    i32 -92, label %60
    i32 -95, label %62
    i32 -93, label %65
    i32 -91, label %68
  ]

52:                                               ; preds = %.thread
  br label %72

53:                                               ; preds = %.thread
  br label %72

54:                                               ; preds = %.thread
  %55 = xor i32 %50, 1
  br label %72

56:                                               ; preds = %.thread
  %57 = tail call i32 @Gia_ManHashAnd(ptr noundef %0, i32 noundef %50, i32 noundef %51) #32
  br label %72

58:                                               ; preds = %.thread
  %59 = tail call i32 @Gia_ManHashOr(ptr noundef %0, i32 noundef %50, i32 noundef %51) #32
  br label %72

60:                                               ; preds = %.thread
  %61 = tail call i32 @Gia_ManHashXor(ptr noundef %0, i32 noundef %50, i32 noundef %51) #32
  br label %72

62:                                               ; preds = %.thread
  %63 = tail call i32 @Gia_ManHashAnd(ptr noundef %0, i32 noundef %50, i32 noundef %51) #32
  %64 = xor i32 %63, 1
  br label %72

65:                                               ; preds = %.thread
  %66 = tail call i32 @Gia_ManHashOr(ptr noundef %0, i32 noundef %50, i32 noundef %51) #32
  %67 = xor i32 %66, 1
  br label %72

68:                                               ; preds = %.thread
  %69 = tail call i32 @Gia_ManHashXor(ptr noundef %0, i32 noundef %50, i32 noundef %51) #32
  %70 = xor i32 %69, 1
  br label %72

71:                                               ; preds = %.thread
  br label %72

72:                                               ; preds = %52, %53, %54, %56, %58, %60, %62, %65, %68, %71, %.thread, %._crit_edge
  %.0 = phi i32 [ %32, %._crit_edge ], [ 1, %52 ], [ %50, %53 ], [ %55, %54 ], [ %57, %56 ], [ %59, %58 ], [ %61, %60 ], [ %64, %62 ], [ %67, %65 ], [ %70, %68 ], [ -1, %71 ], [ 0, %.thread ]
  ret i32 %.0
}